target datalayout = "e-m:e-p270:32:32-p271:32:32-p272:64:64-i64:64-i128:128-f80:128-n8:16:32:64-S128"
target triple = "x86_64-pc-linux-gnu"

%class.btCollisionDispatcher = type { %class.btDispatcher, i32, [4 x i8], %class.btAlignedObjectArray, ptr, ptr, ptr, [36 x [36 x ptr]], [36 x [36 x ptr]], ptr }
%class.btDispatcher = type { ptr }
%class.btAlignedObjectArray = type <{ [4 x i8], i32, i32, [4 x i8], ptr, i8, [7 x i8] }>
%class.btVector3 = type { [4 x float] }
%class.btPersistentManifold = type { %struct.btTypedObject, [4 x i8], [4 x %class.btManifoldPoint], ptr, ptr, i32, float, float, i32, i32, i32 }
%struct.btTypedObject = type { i32 }
%class.btManifoldPoint = type <{ %class.btVector3, %class.btVector3, %class.btVector3, %class.btVector3, %class.btVector3, float, float, float, float, float, i32, i32, i32, i32, [4 x i8], ptr, i32, float, float, float, float, float, float, %union.anon.2, %union.anon.3, float, i32, %class.btVector3, %class.btVector3, [4 x i8] }>
%union.anon.2 = type { float }
%union.anon.3 = type { float }
%class.btPoolAllocator = type <{ i32, i32, i32, [4 x i8], ptr, ptr, %class.btSpinMutex, [4 x i8] }>
%class.btSpinMutex = type { i32 }

; Function Attrs: inlinehint mustprogress nounwind uwtable
define linkonce_odr dso_local void @_Z13btMutexUnlockP11btSpinMutex(ptr noundef %0) #3 comdat {
  %2 = alloca ptr, align 8
  store ptr %0, ptr %2, align 8, !tbaa !137
  ret void
}

; Function Attrs: inlinehint mustprogress nounwind uwtable
define linkonce_odr dso_local void @_Z11btMutexLockP11btSpinMutex(ptr noundef %0) #3 comdat {
  %2 = alloca ptr, align 8
  store ptr %0, ptr %2, align 8, !tbaa !137
  ret void
}

; Function Attrs: mustprogress nounwind uwtable
define linkonce_odr dso_local void @_ZN15btPoolAllocator10freeMemoryEPv(ptr noundef nonnull align 8 dereferenceable(36) %0, ptr noundef %1) #1 comdat align 2 {
  %3 = alloca ptr, align 8
  %4 = alloca ptr, align 8
  store ptr %0, ptr %3, align 8, !tbaa !77
  store ptr %1, ptr %4, align 8, !tbaa !38
  %5 = load ptr, ptr %3, align 8
  %6 = load ptr, ptr %4, align 8, !tbaa !38
  %7 = icmp ne ptr %6, null
  br i1 %7, label %8, label %19

8:                                                ; preds = %2
  %9 = getelementptr inbounds nuw %class.btPoolAllocator, ptr %5, i32 0, i32 6
  call void @_Z11btMutexLockP11btSpinMutex(ptr noundef %9)
  %10 = getelementptr inbounds nuw %class.btPoolAllocator, ptr %5, i32 0, i32 4
  %11 = load ptr, ptr %10, align 8, !tbaa !78
  %12 = load ptr, ptr %4, align 8, !tbaa !38
  store ptr %11, ptr %12, align 8, !tbaa !38
  %13 = load ptr, ptr %4, align 8, !tbaa !38
  %14 = getelementptr inbounds nuw %class.btPoolAllocator, ptr %5, i32 0, i32 4
  store ptr %13, ptr %14, align 8, !tbaa !78
  %15 = getelementptr inbounds nuw %class.btPoolAllocator, ptr %5, i32 0, i32 2
  %16 = load i32, ptr %15, align 8, !tbaa !82
  %17 = add nsw i32 %16, 1
  store i32 %17, ptr %15, align 8, !tbaa !82
  %18 = getelementptr inbounds nuw %class.btPoolAllocator, ptr %5, i32 0, i32 6
  call void @_Z13btMutexUnlockP11btSpinMutex(ptr noundef %18)
  br label %19

19:                                               ; preds = %8, %2
  ret void
}

; Function Attrs: mustprogress nounwind uwtable
define linkonce_odr dso_local noundef zeroext i1 @_ZN15btPoolAllocator8validPtrEPv(ptr noundef nonnull align 8 dereferenceable(36) %0, ptr noundef %1) #1 comdat align 2 {
  %3 = alloca i1, align 1
  %4 = alloca ptr, align 8
  %5 = alloca ptr, align 8
  store ptr %0, ptr %4, align 8, !tbaa !77
  store ptr %1, ptr %5, align 8, !tbaa !38
  %6 = load ptr, ptr %4, align 8
  %7 = load ptr, ptr %5, align 8, !tbaa !38
  %8 = icmp ne ptr %7, null
  br i1 %8, label %9, label %28

9:                                                ; preds = %2
  %10 = load ptr, ptr %5, align 8, !tbaa !38
  %11 = getelementptr inbounds nuw %class.btPoolAllocator, ptr %6, i32 0, i32 5
  %12 = load ptr, ptr %11, align 8, !tbaa !96
  %13 = icmp uge ptr %10, %12
  br i1 %13, label %14, label %27

14:                                               ; preds = %9
  %15 = load ptr, ptr %5, align 8, !tbaa !38
  %16 = getelementptr inbounds nuw %class.btPoolAllocator, ptr %6, i32 0, i32 5
  %17 = load ptr, ptr %16, align 8, !tbaa !96
  %18 = getelementptr inbounds nuw %class.btPoolAllocator, ptr %6, i32 0, i32 1
  %19 = load i32, ptr %18, align 4, !tbaa !97
  %20 = getelementptr inbounds nuw %class.btPoolAllocator, ptr %6, i32 0, i32 0
  %21 = load i32, ptr %20, align 8, !tbaa !98
  %22 = mul nsw i32 %19, %21
  %23 = sext i32 %22 to i64
  %24 = getelementptr inbounds i8, ptr %17, i64 %23
  %25 = icmp ult ptr %15, %24
  br i1 %25, label %26, label %27

26:                                               ; preds = %14
  store i1 true, ptr %3, align 1
  br label %29

27:                                               ; preds = %14, %9
  br label %28

28:                                               ; preds = %27, %2
  store i1 false, ptr %3, align 1
  br label %29

29:                                               ; preds = %28, %26
  %30 = load i1, ptr %3, align 1
  ret i1 %30
}

; Function Attrs: inlinehint mustprogress nounwind uwtable
define linkonce_odr dso_local void @_ZN20btAlignedObjectArrayIP20btPersistentManifoldE8pop_backEv(ptr noundef nonnull align 8 dereferenceable(25) %0) #3 comdat align 2 {
  %2 = alloca ptr, align 8
  store ptr %0, ptr %2, align 8, !tbaa !36
  %3 = load ptr, ptr %2, align 8
  %4 = getelementptr inbounds nuw %class.btAlignedObjectArray, ptr %3, i32 0, i32 1
  %5 = load i32, ptr %4, align 4, !tbaa !92
  %6 = add nsw i32 %5, -1
  store i32 %6, ptr %4, align 4, !tbaa !92
  ret void
}

; Function Attrs: inlinehint mustprogress nounwind uwtable
define linkonce_odr dso_local noundef nonnull align 8 dereferenceable(8) ptr @_ZN20btAlignedObjectArrayIP20btPersistentManifoldEixEi(ptr noundef nonnull align 8 dereferenceable(25) %0, i32 noundef %1) #3 comdat align 2 {
  %3 = alloca ptr, align 8
  %4 = alloca i32, align 4
  store ptr %0, ptr %3, align 8, !tbaa !36
  store i32 %1, ptr %4, align 4, !tbaa !9
  %5 = load ptr, ptr %3, align 8
  %6 = getelementptr inbounds nuw %class.btAlignedObjectArray, ptr %5, i32 0, i32 4
  %7 = load ptr, ptr %6, align 8, !tbaa !94
  %8 = load i32, ptr %4, align 4, !tbaa !9
  %9 = sext i32 %8 to i64
  %10 = getelementptr inbounds ptr, ptr %7, i64 %9
  ret ptr %10
}

; Function Attrs: mustprogress nounwind uwtable
define linkonce_odr dso_local void @_ZN20btAlignedObjectArrayIP20btPersistentManifoldE4swapEii(ptr noundef nonnull align 8 dereferenceable(25) %0, i32 noundef %1, i32 noundef %2) #1 comdat align 2 {
  %4 = alloca ptr, align 8
  %5 = alloca i32, align 4
  %6 = alloca i32, align 4
  %7 = alloca ptr, align 8
  store ptr %0, ptr %4, align 8, !tbaa !36
  store i32 %1, ptr %5, align 4, !tbaa !9
  store i32 %2, ptr %6, align 4, !tbaa !9
  %8 = load ptr, ptr %4, align 8
  call void @llvm.lifetime.start.p0(i64 8, ptr %7) #11
  %9 = getelementptr inbounds nuw %class.btAlignedObjectArray, ptr %8, i32 0, i32 4
  %10 = load ptr, ptr %9, align 8, !tbaa !94
  %11 = load i32, ptr %5, align 4, !tbaa !9
  %12 = sext i32 %11 to i64
  %13 = getelementptr inbounds ptr, ptr %10, i64 %12
  %14 = load ptr, ptr %13, align 8, !tbaa !61
  store ptr %14, ptr %7, align 8, !tbaa !61
  %15 = getelementptr inbounds nuw %class.btAlignedObjectArray, ptr %8, i32 0, i32 4
  %16 = load ptr, ptr %15, align 8, !tbaa !94
  %17 = load i32, ptr %6, align 4, !tbaa !9
  %18 = sext i32 %17 to i64
  %19 = getelementptr inbounds ptr, ptr %16, i64 %18
  %20 = load ptr, ptr %19, align 8, !tbaa !61
  %21 = getelementptr inbounds nuw %class.btAlignedObjectArray, ptr %8, i32 0, i32 4
  %22 = load ptr, ptr %21, align 8, !tbaa !94
  %23 = load i32, ptr %5, align 4, !tbaa !9
  %24 = sext i32 %23 to i64
  %25 = getelementptr inbounds ptr, ptr %22, i64 %24
  store ptr %20, ptr %25, align 8, !tbaa !61
  %26 = load ptr, ptr %7, align 8, !tbaa !61
  %27 = getelementptr inbounds nuw %class.btAlignedObjectArray, ptr %8, i32 0, i32 4
  %28 = load ptr, ptr %27, align 8, !tbaa !94
  %29 = load i32, ptr %6, align 4, !tbaa !9
  %30 = sext i32 %29 to i64
  %31 = getelementptr inbounds ptr, ptr %28, i64 %30
  store ptr %26, ptr %31, align 8, !tbaa !61
  call void @llvm.lifetime.end.p0(i64 8, ptr %7) #11
  ret void
}

; Function Attrs: inlinehint mustprogress nounwind uwtable
define linkonce_odr dso_local noundef i32 @_ZNK20btAlignedObjectArrayIP20btPersistentManifoldE4sizeEv(ptr noundef nonnull align 8 dereferenceable(25) %0) #3 comdat align 2 {
  %2 = alloca ptr, align 8
  store ptr %0, ptr %2, align 8, !tbaa !36
  %3 = load ptr, ptr %2, align 8
  %4 = getelementptr inbounds nuw %class.btAlignedObjectArray, ptr %3, i32 0, i32 1
  %5 = load i32, ptr %4, align 4, !tbaa !92
  ret i32 %5
}

; Function Attrs: mustprogress uwtable
define dso_local void @_ZN21btCollisionDispatcher15releaseManifoldEP20btPersistentManifold(ptr noundef nonnull align 8 dereferenceable(20816) %0, ptr noundef %1) unnamed_addr #2 align 2 {
  %3 = alloca ptr, align 8
  %4 = alloca ptr, align 8
  %5 = alloca i32, align 4
  store ptr %0, ptr %3, align 8, !tbaa !12
  store ptr %1, ptr %4, align 8, !tbaa !61
  %6 = load ptr, ptr %3, align 8
  %7 = load ptr, ptr %4, align 8, !tbaa !61
  %8 = load ptr, ptr %6, align 8, !tbaa !16
  %9 = getelementptr inbounds ptr, ptr %8, i64 5
  %10 = load ptr, ptr %9, align 8
  call void %10(ptr noundef nonnull align 8 dereferenceable(20816) %6, ptr noundef %7)
  call void @llvm.lifetime.start.p0(i64 4, ptr %5) #11
  %11 = load ptr, ptr %4, align 8, !tbaa !61
  %12 = getelementptr inbounds nuw %class.btPersistentManifold, ptr %11, i32 0, i32 10
  %13 = load i32, ptr %12, align 4, !tbaa !63
  store i32 %13, ptr %5, align 4, !tbaa !9
  %14 = getelementptr inbounds nuw %class.btCollisionDispatcher, ptr %6, i32 0, i32 3
  %15 = load i32, ptr %5, align 4, !tbaa !9
  %16 = getelementptr inbounds nuw %class.btCollisionDispatcher, ptr %6, i32 0, i32 3
  %17 = call noundef i32 @_ZNK20btAlignedObjectArrayIP20btPersistentManifoldE4sizeEv(ptr noundef nonnull align 8 dereferenceable(25) %16)
  %18 = sub nsw i32 %17, 1
  call void @_ZN20btAlignedObjectArrayIP20btPersistentManifoldE4swapEii(ptr noundef nonnull align 8 dereferenceable(25) %14, i32 noundef %15, i32 noundef %18)
  %19 = load i32, ptr %5, align 4, !tbaa !9
  %20 = getelementptr inbounds nuw %class.btCollisionDispatcher, ptr %6, i32 0, i32 3
  %21 = load i32, ptr %5, align 4, !tbaa !9
  %22 = call noundef nonnull align 8 dereferenceable(8) ptr @_ZN20btAlignedObjectArrayIP20btPersistentManifoldEixEi(ptr noundef nonnull align 8 dereferenceable(25) %20, i32 noundef %21)
  %23 = load ptr, ptr %22, align 8, !tbaa !61
  %24 = getelementptr inbounds nuw %class.btPersistentManifold, ptr %23, i32 0, i32 10
  store i32 %19, ptr %24, align 4, !tbaa !63
  %25 = getelementptr inbounds nuw %class.btCollisionDispatcher, ptr %6, i32 0, i32 3
  call void @_ZN20btAlignedObjectArrayIP20btPersistentManifoldE8pop_backEv(ptr noundef nonnull align 8 dereferenceable(25) %25)
  %26 = getelementptr inbounds nuw %class.btCollisionDispatcher, ptr %6, i32 0, i32 6
  %27 = load ptr, ptr %26, align 8, !tbaa !28
  %28 = load ptr, ptr %4, align 8, !tbaa !61
  %29 = call noundef zeroext i1 @_ZN15btPoolAllocator8validPtrEPv(ptr noundef nonnull align 8 dereferenceable(36) %27, ptr noundef %28)
  br i1 %29, label %30, label %34

30:                                               ; preds = %2
  %31 = getelementptr inbounds nuw %class.btCollisionDispatcher, ptr %6, i32 0, i32 6
  %32 = load ptr, ptr %31, align 8, !tbaa !28
  %33 = load ptr, ptr %4, align 8, !tbaa !61
  call void @_ZN15btPoolAllocator10freeMemoryEPv(ptr noundef nonnull align 8 dereferenceable(36) %32, ptr noundef %33)
  br label %36

34:                                               ; preds = %2
  %35 = load ptr, ptr %4, align 8, !tbaa !61
  call void @_Z21btAlignedFreeInternalPv(ptr noundef %35)
  br label %36

36:                                               ; preds = %34, %30
  call void @llvm.lifetime.end.p0(i64 4, ptr %5) #11
  ret void
}