; Function Attrs: mustprogress uwtable
define dso_local void @_ZN21btCollisionDispatcher15releaseManifoldEP20btPersistentManifold(ptr noundef nonnull align 8 dereferenceable(20816) %0, ptr noundef %1) unnamed_addr #0 align 2 {
  %3 = load ptr, ptr %0, align 8, !tbaa !4
  %4 = getelementptr inbounds nuw i8, ptr %3, i64 40
  %5 = load ptr, ptr %4, align 8
  tail call void %5(ptr noundef nonnull align 8 dereferenceable(20816) %0, ptr noundef %1)
  %6 = getelementptr inbounds nuw i8, ptr %1, i64 876
  %7 = load i32, ptr %6, align 4, !tbaa !85
  %8 = getelementptr inbounds nuw i8, ptr %0, i64 20
  %9 = load i32, ptr %8, align 4, !tbaa !21
  %10 = add nsw i32 %9, -1
  %11 = getelementptr inbounds nuw i8, ptr %0, i64 32
  %12 = load ptr, ptr %11, align 8, !tbaa !20
  %13 = sext i32 %7 to i64
  %14 = getelementptr inbounds ptr, ptr %12, i64 %13
  %15 = load ptr, ptr %14, align 8, !tbaa !86
  %16 = sext i32 %10 to i64
  %17 = getelementptr inbounds ptr, ptr %12, i64 %16
  %18 = load ptr, ptr %17, align 8, !tbaa !86
  store ptr %18, ptr %14, align 8, !tbaa !86
  store ptr %15, ptr %17, align 8, !tbaa !86
  %19 = load ptr, ptr %14, align 8, !tbaa !86
  %20 = getelementptr inbounds nuw i8, ptr %19, i64 876
  store i32 %7, ptr %20, align 4, !tbaa !85
  store i32 %10, ptr %8, align 4, !tbaa !21
  %21 = getelementptr inbounds nuw i8, ptr %0, i64 64
  %22 = load ptr, ptr %21, align 8, !tbaa !26
  %23 = getelementptr inbounds nuw i8, ptr %22, i64 24
  %24 = load ptr, ptr %23, align 8, !tbaa !90
  %.not7.i = icmp ult ptr %1, %24
  br i1 %.not7.i, label %_ZN15btPoolAllocator8validPtrEPv.exit, label %25

25:                                               ; preds = %2
  %26 = getelementptr inbounds nuw i8, ptr %22, i64 4
  %27 = load i32, ptr %26, align 4, !tbaa !91
  %28 = load i32, ptr %22, align 8, !tbaa !92
  %29 = mul nsw i32 %28, %27
  %30 = sext i32 %29 to i64
  %31 = getelementptr inbounds i8, ptr %24, i64 %30
  %32 = icmp ult ptr %1, %31
  br i1 %32, label %_ZN15btPoolAllocator10freeMemoryEPv.exit, label %_ZN15btPoolAllocator8validPtrEPv.exit

_ZN15btPoolAllocator10freeMemoryEPv.exit:         ; preds = %25
  %33 = getelementptr inbounds nuw i8, ptr %22, i64 16
  %34 = load ptr, ptr %33, align 8, !tbaa !69
  store ptr %34, ptr %1, align 8, !tbaa !73
  store ptr %1, ptr %33, align 8, !tbaa !69
  %35 = getelementptr inbounds nuw i8, ptr %22, i64 8
  %36 = load i32, ptr %35, align 8, !tbaa !74
  %37 = add nsw i32 %36, 1
  store i32 %37, ptr %35, align 8, !tbaa !74
  br label %38

_ZN15btPoolAllocator8validPtrEPv.exit:            ; preds = %25, %2
  tail call void @_Z21btAlignedFreeInternalPv(ptr noundef nonnull %1)
  br label %38

38:                                               ; preds = %_ZN15btPoolAllocator8validPtrEPv.exit, %_ZN15btPoolAllocator10freeMemoryEPv.exit
  ret void
}